target datalayout = "e-m:e-p270:32:32-p271:32:32-p272:64:64-i64:64-i128:128-f80:128-n8:16:32:64-S128"
target triple = "x86_64-pc-linux-gnu"

%struct.lambda_components_t = type { ptr, i32, i32 }
%struct.lambda_vec_t = type { ptr, i32, ptr, i32 }

@.str.276 = private unnamed_addr constant [21 x i8] c"lambda vector [%s]: \00", align 1
@.str.277 = private unnamed_addr constant [22 x i8] c" init-lambda-state=%d\00", align 1
@.str.278 = private unnamed_addr constant [15 x i8] c" dhdl index=%d\00", align 1
@.str.279 = private unnamed_addr constant [11 x i8] c" (%s) l=%g\00", align 1

; Function Attrs: mustprogress nounwind uwtable
define internal noundef i32 @_ZL18snprint_lambda_vecPciPKcP12lambda_vec_t(ptr noundef %0, i32 noundef %1, ptr noundef %2, ptr noundef %3) #3 {
  %5 = alloca ptr, align 8
  %6 = alloca i32, align 4
  %7 = alloca ptr, align 8
  %8 = alloca ptr, align 8
  %9 = alloca i32, align 4
  %10 = alloca i32, align 4
  store ptr %0, ptr %5, align 8, !tbaa !46
  store i32 %1, ptr %6, align 4, !tbaa !4
  store ptr %2, ptr %7, align 8, !tbaa !46
  store ptr %3, ptr %8, align 8, !tbaa !155
  call void @llvm.lifetime.start.p0(i64 4, ptr %9) #17
  store i32 0, ptr %9, align 4, !tbaa !4
  %11 = load ptr, ptr %5, align 8, !tbaa !46
  %12 = load i32, ptr %9, align 4, !tbaa !4
  %13 = sext i32 %12 to i64
  %14 = getelementptr inbounds i8, ptr %11, i64 %13
  %15 = load i32, ptr %6, align 4, !tbaa !4
  %16 = load i32, ptr %9, align 4, !tbaa !4
  %17 = sub nsw i32 %15, %16
  %18 = sext i32 %17 to i64
  %19 = load ptr, ptr %7, align 8, !tbaa !46
  %20 = call i32 (ptr, i64, ptr, ...) @snprintf(ptr noundef %14, i64 noundef %18, ptr noundef @.str.276, ptr noundef %19) #17
  %21 = load i32, ptr %9, align 4, !tbaa !4
  %22 = add nsw i32 %21, %20
  store i32 %22, ptr %9, align 4, !tbaa !4
  %23 = load ptr, ptr %8, align 8, !tbaa !155
  %24 = getelementptr inbounds nuw %struct.lambda_vec_t, ptr %23, i32 0, i32 3
  %25 = load i32, ptr %24, align 8, !tbaa !152
  %26 = icmp sge i32 %25, 0
  br i1 %26, label %27, label %42

27:                                               ; preds = %4
  %28 = load ptr, ptr %5, align 8, !tbaa !46
  %29 = load i32, ptr %9, align 4, !tbaa !4
  %30 = sext i32 %29 to i64
  %31 = getelementptr inbounds i8, ptr %28, i64 %30
  %32 = load i32, ptr %6, align 4, !tbaa !4
  %33 = load i32, ptr %9, align 4, !tbaa !4
  %34 = sub nsw i32 %32, %33
  %35 = sext i32 %34 to i64
  %36 = load ptr, ptr %8, align 8, !tbaa !155
  %37 = getelementptr inbounds nuw %struct.lambda_vec_t, ptr %36, i32 0, i32 3
  %38 = load i32, ptr %37, align 8, !tbaa !152
  %39 = call i32 (ptr, i64, ptr, ...) @snprintf(ptr noundef %31, i64 noundef %35, ptr noundef @.str.277, i32 noundef %38) #17
  %40 = load i32, ptr %9, align 4, !tbaa !4
  %41 = add nsw i32 %40, %39
  store i32 %41, ptr %9, align 4, !tbaa !4
  br label %42

42:                                               ; preds = %27, %4
  %43 = load ptr, ptr %8, align 8, !tbaa !155
  %44 = getelementptr inbounds nuw %struct.lambda_vec_t, ptr %43, i32 0, i32 1
  %45 = load i32, ptr %44, align 8, !tbaa !181
  %46 = icmp sge i32 %45, 0
  br i1 %46, label %47, label %62

47:                                               ; preds = %42
  %48 = load ptr, ptr %5, align 8, !tbaa !46
  %49 = load i32, ptr %9, align 4, !tbaa !4
  %50 = sext i32 %49 to i64
  %51 = getelementptr inbounds i8, ptr %48, i64 %50
  %52 = load i32, ptr %6, align 4, !tbaa !4
  %53 = load i32, ptr %9, align 4, !tbaa !4
  %54 = sub nsw i32 %52, %53
  %55 = sext i32 %54 to i64
  %56 = load ptr, ptr %8, align 8, !tbaa !155
  %57 = getelementptr inbounds nuw %struct.lambda_vec_t, ptr %56, i32 0, i32 1
  %58 = load i32, ptr %57, align 8, !tbaa !181
  %59 = call i32 (ptr, i64, ptr, ...) @snprintf(ptr noundef %51, i64 noundef %55, ptr noundef @.str.278, i32 noundef %58) #17
  %60 = load i32, ptr %9, align 4, !tbaa !4
  %61 = add nsw i32 %60, %59
  store i32 %61, ptr %9, align 4, !tbaa !4
  br label %103

62:                                               ; preds = %42
  call void @llvm.lifetime.start.p0(i64 4, ptr %10) #17
  store i32 0, ptr %10, align 4, !tbaa !4
  br label %63

63:                                               ; preds = %99, %62
  %64 = load i32, ptr %10, align 4, !tbaa !4
  %65 = load ptr, ptr %8, align 8, !tbaa !155
  %66 = getelementptr inbounds nuw %struct.lambda_vec_t, ptr %65, i32 0, i32 2
  %67 = load ptr, ptr %66, align 8, !tbaa !129
  %68 = getelementptr inbounds nuw %struct.lambda_components_t, ptr %67, i32 0, i32 1
  %69 = load i32, ptr %68, align 8, !tbaa !226
  %70 = icmp slt i32 %64, %69
  br i1 %70, label %71, label %102

71:                                               ; preds = %63
  %72 = load ptr, ptr %5, align 8, !tbaa !46
  %73 = load i32, ptr %9, align 4, !tbaa !4
  %74 = sext i32 %73 to i64
  %75 = getelementptr inbounds i8, ptr %72, i64 %74
  %76 = load i32, ptr %6, align 4, !tbaa !4
  %77 = load i32, ptr %9, align 4, !tbaa !4
  %78 = sub nsw i32 %76, %77
  %79 = sext i32 %78 to i64
  %80 = load ptr, ptr %8, align 8, !tbaa !155
  %81 = getelementptr inbounds nuw %struct.lambda_vec_t, ptr %80, i32 0, i32 2
  %82 = load ptr, ptr %81, align 8, !tbaa !129
  %83 = getelementptr inbounds nuw %struct.lambda_components_t, ptr %82, i32 0, i32 0
  %84 = load ptr, ptr %83, align 8, !tbaa !287
  %85 = load i32, ptr %10, align 4, !tbaa !4
  %86 = sext i32 %85 to i64
  %87 = getelementptr inbounds ptr, ptr %84, i64 %86
  %88 = load ptr, ptr %87, align 8, !tbaa !46
  %89 = load ptr, ptr %8, align 8, !tbaa !155
  %90 = getelementptr inbounds nuw %struct.lambda_vec_t, ptr %89, i32 0, i32 0
  %91 = load ptr, ptr %90, align 8, !tbaa !130
  %92 = load i32, ptr %10, align 4, !tbaa !4
  %93 = sext i32 %92 to i64
  %94 = getelementptr inbounds double, ptr %91, i64 %93
  %95 = load double, ptr %94, align 8, !tbaa !32
  %96 = call i32 (ptr, i64, ptr, ...) @snprintf(ptr noundef %75, i64 noundef %79, ptr noundef @.str.279, ptr noundef %88, double noundef %95) #17
  %97 = load i32, ptr %9, align 4, !tbaa !4
  %98 = add nsw i32 %97, %96
  store i32 %98, ptr %9, align 4, !tbaa !4
  br label %99

99:                                               ; preds = %71
  %100 = load i32, ptr %10, align 4, !tbaa !4
  %101 = add nsw i32 %100, 1
  store i32 %101, ptr %10, align 4, !tbaa !4
  br label %63, !llvm.loop !385

102:                                              ; preds = %63
  call void @llvm.lifetime.end.p0(i64 4, ptr %10) #17
  br label %103

103:                                              ; preds = %102, %47
  %104 = load i32, ptr %9, align 4, !tbaa !4
  call void @llvm.lifetime.end.p0(i64 4, ptr %9) #17
  ret i32 %104
}