; Function Attrs: mustprogress nofree nounwind uwtable
define internal fastcc void @_ZL18snprint_lambda_vecPciPKcP12lambda_vec_t(ptr noundef nonnull writeonly captures(none) %0, ptr noundef %1, ptr noundef readonly captures(none) %2) unnamed_addr #18 {
  %4 = tail call i32 (ptr, i64, ptr, ...) @snprintf(ptr noundef nonnull dereferenceable(1) %0, i64 noundef 4096, ptr noundef nonnull @.str.276, ptr noundef %1) #24
  %5 = getelementptr inbounds nuw i8, ptr %2, i64 24
  %6 = load i32, ptr %5, align 8, !tbaa !74
  %7 = icmp sgt i32 %6, -1
  br i1 %7, label %8, label %15

8:                                                ; preds = %3
  %9 = sext i32 %4 to i64
  %10 = getelementptr inbounds i8, ptr %0, i64 %9
  %11 = sub nsw i32 4096, %4
  %12 = sext i32 %11 to i64
  %13 = tail call i32 (ptr, i64, ptr, ...) @snprintf(ptr noundef nonnull %10, i64 noundef %12, ptr noundef nonnull @.str.277, i32 noundef %6) #24
  %14 = add nsw i32 %13, %4
  br label %15

15:                                               ; preds = %8, %3
  %.032 = phi i32 [ %14, %8 ], [ %4, %3 ]
  %16 = getelementptr inbounds nuw i8, ptr %2, i64 8
  %17 = load i32, ptr %16, align 8, !tbaa !75
  %18 = icmp sgt i32 %17, -1
  br i1 %18, label %24, label %.preheader

.preheader:                                       ; preds = %15
  %19 = getelementptr inbounds nuw i8, ptr %2, i64 16
  %20 = load ptr, ptr %19, align 8, !tbaa !76
  %21 = getelementptr inbounds nuw i8, ptr %20, i64 8
  %22 = load i32, ptr %21, align 8, !tbaa !44
  %23 = icmp sgt i32 %22, 0
  br i1 %23, label %.lr.ph, label %.loopexit

24:                                               ; preds = %15
  %25 = sext i32 %.032 to i64
  %26 = getelementptr inbounds i8, ptr %0, i64 %25
  %27 = sub nsw i32 4096, %.032
  %28 = sext i32 %27 to i64
  %29 = tail call i32 (ptr, i64, ptr, ...) @snprintf(ptr noundef nonnull %26, i64 noundef %28, ptr noundef nonnull @.str.278, i32 noundef %17) #24
  br label %.loopexit

.lr.ph:                                           ; preds = %.preheader, %.lr.ph
  %indvars.iv = phi i64 [ %indvars.iv.next, %.lr.ph ], [ 0, %.preheader ]
  %30 = phi ptr [ %43, %.lr.ph ], [ %20, %.preheader ]
  %.235 = phi i32 [ %42, %.lr.ph ], [ %.032, %.preheader ]
  %31 = sext i32 %.235 to i64
  %32 = getelementptr inbounds i8, ptr %0, i64 %31
  %33 = sub nsw i32 4096, %.235
  %34 = sext i32 %33 to i64
  %35 = load ptr, ptr %30, align 8, !tbaa !78
  %36 = getelementptr inbounds nuw ptr, ptr %35, i64 %indvars.iv
  %37 = load ptr, ptr %36, align 8, !tbaa !50
  %38 = load ptr, ptr %2, align 8, !tbaa !85
  %39 = getelementptr inbounds nuw double, ptr %38, i64 %indvars.iv
  %40 = load double, ptr %39, align 8, !tbaa !80
  %41 = tail call i32 (ptr, i64, ptr, ...) @snprintf(ptr noundef nonnull %32, i64 noundef %34, ptr noundef nonnull @.str.279, ptr noundef %37, double noundef %40) #24
  %42 = add nsw i32 %41, %.235
  %indvars.iv.next = add nuw nsw i64 %indvars.iv, 1
  %43 = load ptr, ptr %19, align 8, !tbaa !76
  %44 = getelementptr inbounds nuw i8, ptr %43, i64 8
  %45 = load i32, ptr %44, align 8, !tbaa !44
  %46 = sext i32 %45 to i64
  %47 = icmp slt i64 %indvars.iv.next, %46
  br i1 %47, label %.lr.ph, label %.loopexit, !llvm.loop !267

.loopexit:                                        ; preds = %.lr.ph, %.preheader, %24
  ret void
}